target datalayout = "e-m:e-p270:32:32-p271:32:32-p272:64:64-i64:64-i128:128-f80:128-n8:16:32:64-S128"
target triple = "x86_64-pc-linux-gnu"

@xml_handle = internal global ptr null, align 8
@.str.950 = private unnamed_addr constant [6 x i8] c"<?xml\00", align 1

; Function Attrs: nounwind uwtable
define internal i32 @dissect_diameter_3gpp_civic_address(ptr noundef %0, ptr noundef %1, ptr noundef %2, ptr noundef %3) #0 {
  %5 = alloca i32, align 4
  %6 = alloca ptr, align 8
  %7 = alloca ptr, align 8
  %8 = alloca ptr, align 8
  %9 = alloca ptr, align 8
  %10 = alloca i32, align 4
  store ptr %0, ptr %6, align 8
  store ptr %1, ptr %7, align 8
  store ptr %2, ptr %8, align 8
  store ptr %3, ptr %9, align 8
  %11 = load ptr, ptr %6, align 8
  %12 = call i32 @tvb_reported_length(ptr noundef %11)
  store i32 %12, ptr %10, align 4
  %13 = load i32, ptr %10, align 4
  %14 = icmp slt i32 %13, 38
  br i1 %14, label %15, label %17

15:                                               ; preds = %4
  %16 = load i32, ptr %10, align 4
  store i32 %16, ptr %5, align 4
  br label %32

17:                                               ; preds = %4
  %18 = load ptr, ptr %6, align 8
  %19 = call i32 @tvb_strncaseeql(ptr noundef %18, i32 noundef 0, ptr noundef @.str.950, i64 noundef 5)
  %20 = icmp eq i32 %19, 0
  br i1 %20, label %21, label %30

21:                                               ; preds = %17
  %22 = load ptr, ptr @xml_handle, align 8
  %23 = icmp ne ptr %22, null
  br i1 %23, label %24, label %30

24:                                               ; preds = %21
  %25 = load ptr, ptr @xml_handle, align 8
  %26 = load ptr, ptr %6, align 8
  %27 = load ptr, ptr %7, align 8
  %28 = load ptr, ptr %8, align 8
  %29 = call i32 @call_dissector(ptr noundef %25, ptr noundef %26, ptr noundef %27, ptr noundef %28)
  br label %30

30:                                               ; preds = %24, %21, %17
  %31 = load i32, ptr %10, align 4
  store i32 %31, ptr %5, align 4
  br label %32

32:                                               ; preds = %30, %15
  %33 = load i32, ptr %5, align 4
  ret i32 %33
}