; Function Attrs: nounwind uwtable
define internal i32 @dissect_diameter_3gpp_civic_address(ptr noundef %0, ptr noundef %1, ptr noundef %2, ptr readnone captures(none) %3) #0 {
  %5 = tail call i32 @tvb_reported_length(ptr noundef %0) #3
  %6 = icmp slt i32 %5, 38
  br i1 %6, label %14, label %7

7:                                                ; preds = %4
  %8 = tail call i32 @tvb_strncaseeql(ptr noundef %0, i32 noundef 0, ptr noundef nonnull @.str.950, i64 noundef 5) #3
  %9 = icmp eq i32 %8, 0
  %10 = load ptr, ptr @xml_handle, align 8
  %11 = icmp ne ptr %10, null
  %or.cond = select i1 %9, i1 %11, i1 false
  br i1 %or.cond, label %12, label %14

12:                                               ; preds = %7
  %13 = tail call i32 @call_dissector(ptr noundef nonnull %10, ptr noundef %0, ptr noundef %1, ptr noundef %2) #3
  br label %14

14:                                               ; preds = %7, %12, %4
  ret i32 %5
}